; Function Attrs: nounwind uwtable
define dso_local i64 @be_loread(ptr noundef readonly captures(none) %0) local_unnamed_addr #0 {
  %2 = getelementptr inbounds nuw i8, ptr %0, i64 32
  %3 = load i64, ptr %2, align 8
  %4 = trunc i64 %3 to i32
  %5 = getelementptr inbounds nuw i8, ptr %0, i64 48
  %6 = load i64, ptr %5, align 8
  %7 = trunc i64 %6 to i32
  %spec.store.select = tail call i32 @llvm.smax.i32(i32 %7, i32 0)
  %8 = add nuw i32 %spec.store.select, 4
  %9 = sext i32 %8 to i64
  %10 = tail call ptr @palloc(i64 noundef %9) #10
  %11 = getelementptr inbounds nuw i8, ptr %10, i64 4
  %12 = tail call i32 @lo_read(i32 noundef %4, ptr noundef nonnull %11, i32 noundef %spec.store.select)
  %13 = shl i32 %12, 2
  %14 = add i32 %13, 16
  store i32 %14, ptr %10, align 4
  %15 = ptrtoint ptr %10 to i64
  ret i64 %15
}